target datalayout = "e-m:e-p270:32:32-p271:32:32-p272:64:64-i64:64-i128:128-f80:128-n8:16:32:64-S128"
target triple = "x86_64-unknown-linux-gnu"

%struct.NBDClientConnection = type { ptr, ptr, ptr, %struct.NBDExportInfo, i8, i8, %struct.QemuMutex, %struct.NBDExportInfo, ptr, ptr, ptr, i8, i8, ptr }
%struct.QemuMutex = type { %union.pthread_mutex_t, i8 }
%union.pthread_mutex_t = type { %struct.__pthread_mutex_s }
%struct.__pthread_mutex_s = type { i32, i32, i32, i32, i32, i16, i16, %struct.__pthread_internal_list }
%struct.__pthread_internal_list = type { ptr, ptr }
%struct.NBDExportInfo = type { i8, ptr, ptr, i32, i8, i64, i16, i32, i32, i32, i32, ptr, i32, ptr }
%struct.QemuLockable = type { ptr, ptr, ptr }

; Function Attrs: nounwind sspstrong uwtable
define internal void @qemu_lockable_unlock(ptr noundef %x) #0 {
entry:
  %x.addr = alloca ptr, align 8
  store ptr %x, ptr %x.addr, align 8
  %0 = load ptr, ptr %x.addr, align 8
  %unlock = getelementptr inbounds %struct.QemuLockable, ptr %0, i32 0, i32 2
  %1 = load ptr, ptr %unlock, align 8
  %2 = load ptr, ptr %x.addr, align 8
  %object = getelementptr inbounds %struct.QemuLockable, ptr %2, i32 0, i32 0
  %3 = load ptr, ptr %object, align 8
  call void %1(ptr noundef %3)
  ret void
}

; Function Attrs: nounwind sspstrong uwtable
define internal void @glib_autoptr_clear_QemuLockable(ptr noundef %_ptr) #0 {
entry:
  %_ptr.addr = alloca ptr, align 8
  store ptr %_ptr, ptr %_ptr.addr, align 8
  %0 = load ptr, ptr %_ptr.addr, align 8
  %tobool = icmp ne ptr %0, null
  br i1 %tobool, label %if.then, label %if.end

if.then:                                          ; preds = %entry
  %1 = load ptr, ptr %_ptr.addr, align 8
  call void @qemu_lockable_auto_unlock(ptr noundef %1)
  br label %if.end

if.end:                                           ; preds = %if.then, %entry
  ret void
}

; Function Attrs: nounwind sspstrong uwtable
define internal void @qemu_lockable_lock(ptr noundef %x) #0 {
entry:
  %x.addr = alloca ptr, align 8
  store ptr %x, ptr %x.addr, align 8
  %0 = load ptr, ptr %x.addr, align 8
  %lock = getelementptr inbounds %struct.QemuLockable, ptr %0, i32 0, i32 1
  %1 = load ptr, ptr %lock, align 8
  %2 = load ptr, ptr %x.addr, align 8
  %object = getelementptr inbounds %struct.QemuLockable, ptr %2, i32 0, i32 0
  %3 = load ptr, ptr %object, align 8
  call void %1(ptr noundef %3)
  ret void
}

; Function Attrs: nounwind sspstrong uwtable
define internal void @qemu_lockable_auto_unlock(ptr noundef %x) #0 {
entry:
  %x.addr = alloca ptr, align 8
  store ptr %x, ptr %x.addr, align 8
  %0 = load ptr, ptr %x.addr, align 8
  %tobool = icmp ne ptr %0, null
  br i1 %tobool, label %if.then, label %if.end

if.then:                                          ; preds = %entry
  %1 = load ptr, ptr %x.addr, align 8
  call void @qemu_lockable_unlock(ptr noundef %1)
  br label %if.end

if.end:                                           ; preds = %if.then, %entry
  ret void
}

; Function Attrs: nounwind sspstrong uwtable
define internal ptr @g_steal_pointer(ptr noundef %pp) #0 {
entry:
  %pp.addr = alloca ptr, align 8
  %ptr = alloca ptr, align 8
  %ref = alloca ptr, align 8
  store ptr %pp, ptr %pp.addr, align 8
  %0 = load ptr, ptr %pp.addr, align 8
  store ptr %0, ptr %ptr, align 8
  %1 = load ptr, ptr %ptr, align 8
  %2 = load ptr, ptr %1, align 8
  store ptr %2, ptr %ref, align 8
  %3 = load ptr, ptr %ptr, align 8
  store ptr null, ptr %3, align 8
  %4 = load ptr, ptr %ref, align 8
  ret ptr %4
}

; Function Attrs: nounwind sspstrong uwtable
define internal void @glib_autoptr_cleanup_QemuLockable(ptr noundef %_ptr) #0 {
entry:
  %_ptr.addr = alloca ptr, align 8
  store ptr %_ptr, ptr %_ptr.addr, align 8
  %0 = load ptr, ptr %_ptr.addr, align 8
  %1 = load ptr, ptr %0, align 8
  call void @glib_autoptr_clear_QemuLockable(ptr noundef %1)
  ret void
}

; Function Attrs: nounwind sspstrong uwtable
define internal ptr @qemu_lockable_auto_lock(ptr noundef %x) #0 {
entry:
  %x.addr = alloca ptr, align 8
  store ptr %x, ptr %x.addr, align 8
  %0 = load ptr, ptr %x.addr, align 8
  call void @qemu_lockable_lock(ptr noundef %0)
  %1 = load ptr, ptr %x.addr, align 8
  ret ptr %1
}

; Function Attrs: nounwind sspstrong uwtable
define dso_local void @nbd_co_establish_connection_cancel(ptr noundef %conn) #0 {
entry:
  %conn.addr = alloca ptr, align 8
  %wait_co = alloca ptr, align 8
  %qemu_lockable_auto3 = alloca ptr, align 8
  %.compoundliteral = alloca %struct.QemuLockable, align 8
  store ptr %conn, ptr %conn.addr, align 8
  %object = getelementptr inbounds %struct.QemuLockable, ptr %.compoundliteral, i32 0, i32 0
  %0 = load ptr, ptr %conn.addr, align 8
  %mutex = getelementptr inbounds %struct.NBDClientConnection, ptr %0, i32 0, i32 6
  store ptr %mutex, ptr %object, align 8
  %lock = getelementptr inbounds %struct.QemuLockable, ptr %.compoundliteral, i32 0, i32 1
  store ptr @qemu_mutex_lock, ptr %lock, align 8
  %unlock = getelementptr inbounds %struct.QemuLockable, ptr %.compoundliteral, i32 0, i32 2
  store ptr @qemu_mutex_unlock, ptr %unlock, align 8
  %call = call ptr @qemu_lockable_auto_lock(ptr noundef %.compoundliteral)
  store ptr %call, ptr %qemu_lockable_auto3, align 8
  br label %for.cond

for.cond:                                         ; preds = %for.inc, %entry
  %1 = load ptr, ptr %qemu_lockable_auto3, align 8
  %tobool = icmp ne ptr %1, null
  br i1 %tobool, label %for.body, label %for.cond.cleanup

for.cond.cleanup:                                 ; preds = %for.cond
  call void @glib_autoptr_cleanup_QemuLockable(ptr noundef %qemu_lockable_auto3)
  br label %for.end

for.body:                                         ; preds = %for.cond
  %2 = load ptr, ptr %conn.addr, align 8
  %wait_co1 = getelementptr inbounds %struct.NBDClientConnection, ptr %2, i32 0, i32 13
  %call2 = call ptr @g_steal_pointer(ptr noundef %wait_co1)
  store ptr %call2, ptr %wait_co, align 8
  br label %for.inc

for.inc:                                          ; preds = %for.body
  %3 = load ptr, ptr %qemu_lockable_auto3, align 8
  call void @qemu_lockable_auto_unlock(ptr noundef %3)
  store ptr null, ptr %qemu_lockable_auto3, align 8
  br label %for.cond, !llvm.loop !10

for.end:                                          ; preds = %for.cond.cleanup
  %4 = load ptr, ptr %wait_co, align 8
  %tobool3 = icmp ne ptr %4, null
  br i1 %tobool3, label %if.then, label %if.end

if.then:                                          ; preds = %for.end
  %5 = load ptr, ptr %wait_co, align 8
  call void @aio_co_wake(ptr noundef %5)
  br label %if.end

if.end:                                           ; preds = %if.then, %for.end
  ret void
}