; Function Attrs: nounwind sspstrong uwtable
define dso_local void @nbd_co_establish_connection_cancel(ptr noundef %conn) local_unnamed_addr #1 {
qemu_lockable_auto_unlock.exit.us:
  %mutex = getelementptr inbounds nuw i8, ptr %conn, i64 120
  %0 = load atomic i64, ptr @qemu_mutex_lock_func monotonic, align 8
  %1 = inttoptr i64 %0 to ptr
  tail call void %1(ptr noundef nonnull %mutex, ptr noundef nonnull @.str.10, i32 noundef 122) #10
  %wait_co1 = getelementptr inbounds nuw i8, ptr %conn, i64 288
  %2 = load ptr, ptr %wait_co1, align 8
  store ptr null, ptr %wait_co1, align 8
  tail call void @qemu_mutex_unlock_impl(ptr noundef nonnull %mutex, ptr noundef nonnull @.str.10, i32 noundef 132) #10
  %tobool3.not = icmp eq ptr %2, null
  br i1 %tobool3.not, label %if.end, label %if.then

if.then:                                          ; preds = %qemu_lockable_auto_unlock.exit.us
  tail call void @aio_co_wake(ptr noundef nonnull %2) #10
  br label %if.end

if.end:                                           ; preds = %if.then, %qemu_lockable_auto_unlock.exit.us
  ret void
}